SF:/Users/mgch/github/mingyuchoo/rust-study-series/TUI/ratatui-diary/src/main.rs
FN:48,_RINvCsfntFpjbdyq5_13ratatui_diary7run_apppEB2_
FN:51,_RNCINvCsfntFpjbdyq5_13ratatui_diary7run_apppE0B4_
FN:73,_RNvCsfntFpjbdyq5_13ratatui_diary10handle_key
FN:218,_RNvCsfntFpjbdyq5_13ratatui_diary15execute_command
FN:116,_RNvCsfntFpjbdyq5_13ratatui_diary17handle_editor_key
FN:87,_RNvCsfntFpjbdyq5_13ratatui_diary19handle_calendar_key
FN:208,_RNvCsfntFpjbdyq5_13ratatui_diary24handle_editor_insert_key
FN:125,_RNvCsfntFpjbdyq5_13ratatui_diary24handle_editor_normal_key
FN:21,_RNvCsfntFpjbdyq5_13ratatui_diary4main
FN:48,_RINvCs8lFaPuWrhEA_13ratatui_diary7run_appINtNtNtCs5hElCmNLrjn_7ratatui7backend9crossterm16CrosstermBackendNtNtNtCs8C2UMpquKdo_3std2io5stdio6StdoutEEB2_
FN:51,_RNCINvCs8lFaPuWrhEA_13ratatui_diary7run_appINtNtNtCs5hElCmNLrjn_7ratatui7backend9crossterm16CrosstermBackendNtNtNtCs8C2UMpquKdo_3std2io5stdio6StdoutEE0B4_
FN:73,_RNvCs8lFaPuWrhEA_13ratatui_diary10handle_key
FN:218,_RNvCs8lFaPuWrhEA_13ratatui_diary15execute_command
FN:116,_RNvCs8lFaPuWrhEA_13ratatui_diary17handle_editor_key
FN:87,_RNvCs8lFaPuWrhEA_13ratatui_diary19handle_calendar_key
FN:208,_RNvCs8lFaPuWrhEA_13ratatui_diary24handle_editor_insert_key
FN:125,_RNvCs8lFaPuWrhEA_13ratatui_diary24handle_editor_normal_key
FN:21,_RNvCs8lFaPuWrhEA_13ratatui_diary4main
FNDA:0,_RINvCsfntFpjbdyq5_13ratatui_diary7run_apppEB2_
FNDA:0,_RNCINvCsfntFpjbdyq5_13ratatui_diary7run_apppE0B4_
FNDA:0,_RNvCsfntFpjbdyq5_13ratatui_diary10handle_key
FNDA:0,_RNvCsfntFpjbdyq5_13ratatui_diary15execute_command
FNDA:0,_RNvCsfntFpjbdyq5_13ratatui_diary17handle_editor_key
FNDA:0,_RNvCsfntFpjbdyq5_13ratatui_diary19handle_calendar_key
FNDA:0,_RNvCsfntFpjbdyq5_13ratatui_diary24handle_editor_insert_key
FNDA:0,_RNvCsfntFpjbdyq5_13ratatui_diary24handle_editor_normal_key
FNDA:0,_RNvCsfntFpjbdyq5_13ratatui_diary4main
FNDA:0,_RINvCs8lFaPuWrhEA_13ratatui_diary7run_appINtNtNtCs5hElCmNLrjn_7ratatui7backend9crossterm16CrosstermBackendNtNtNtCs8C2UMpquKdo_3std2io5stdio6StdoutEEB2_
FNDA:0,_RNCINvCs8lFaPuWrhEA_13ratatui_diary7run_appINtNtNtCs5hElCmNLrjn_7ratatui7backend9crossterm16CrosstermBackendNtNtNtCs8C2UMpquKdo_3std2io5stdio6StdoutEE0B4_
FNDA:0,_RNvCs8lFaPuWrhEA_13ratatui_diary10handle_key
FNDA:0,_RNvCs8lFaPuWrhEA_13ratatui_diary15execute_command
FNDA:0,_RNvCs8lFaPuWrhEA_13ratatui_diary17handle_editor_key
FNDA:0,_RNvCs8lFaPuWrhEA_13ratatui_diary19handle_calendar_key
FNDA:0,_RNvCs8lFaPuWrhEA_13ratatui_diary24handle_editor_insert_key
FNDA:0,_RNvCs8lFaPuWrhEA_13ratatui_diary24handle_editor_normal_key
FNDA:0,_RNvCs8lFaPuWrhEA_13ratatui_diary4main
FNF:9
FNH:0
DA:21,0
DA:23,0
DA:24,0
DA:27,0
DA:30,0
DA:31,0
DA:32,0
DA:33,0
DA:34,0
DA:35,0
DA:38,0
DA:41,0
DA:42,0
DA:43,0
DA:45,0
DA:46,0
DA:48,0
DA:51,0
DA:54,0
DA:55,0
DA:56,0
DA:59,0
DA:60,0
DA:61,0
DA:64,0
DA:65,0
DA:66,0
DA:67,0
DA:70,0
DA:71,0
DA:73,0
DA:77,0
DA:78,0
DA:79,0
DA:81,0
DA:82,0
DA:83,0
DA:85,0
DA:87,0
DA:91,0
DA:92,0
DA:93,0
DA:94,0
DA:95,0
DA:96,0
DA:97,0
DA:98,0
DA:99,0
DA:101,0
DA:104,0
DA:105,0
DA:106,0
DA:107,0
DA:108,0
DA:109,0
DA:110,0
DA:111,0
DA:112,0
DA:114,0
DA:116,0
DA:119,0
DA:120,0
DA:121,0
DA:123,0
DA:125,0
DA:129,0
DA:131,0
DA:132,0
DA:133,0
DA:134,0
DA:135,0
DA:136,0
DA:137,0
DA:141,0
DA:142,0
DA:143,0
DA:144,0
DA:145,0
DA:146,0
DA:150,0
DA:151,0
DA:152,0
DA:153,0
DA:154,0
DA:155,0
DA:158,0
DA:162,0
DA:164,0
DA:165,0
DA:166,0
DA:167,0
DA:168,0
DA:169,0
DA:170,0
DA:173,0
DA:174,0
DA:175,0
DA:178,0
DA:179,0
DA:180,0
DA:181,0
DA:184,0
DA:185,0
DA:188,0
DA:189,0
DA:190,0
DA:191,0
DA:192,0
DA:195,0
DA:196,0
DA:199,0
DA:200,0
DA:203,0
DA:204,0
DA:206,0
DA:208,0
DA:209,0
DA:210,0
DA:211,0
DA:212,0
DA:213,0
DA:214,0
DA:216,0
DA:218,0
DA:221,0
DA:222,0
DA:223,0
DA:224,0
DA:225,0
DA:226,0
DA:227,0
DA:228,0
DA:230,0
DA:231,0
DA:232,0
DA:233,0
DA:234,0
DA:235,0
DA:236,0
DA:237,0
DA:239,0
DA:240,0
DA:241,0
DA:242,0
DA:243,0
DA:244,0
DA:245,0
DA:249,0
DA:250,0
BRF:0
BRH:0
LF:150
LH:0
end_of_record
SF:/Users/mgch/github/mingyuchoo/rust-study-series/TUI/ratatui-diary/src/markdown.rs
FN:72,_RNCNCNvNtCsamRkV5TgGfN_13ratatui_diary8markdown27convert_fmt_text_to_ratatui00B7_
FN:18,_RNCNvNtCsamRkV5TgGfN_13ratatui_diary8markdown14render_to_text0B5_
FN:22,_RNCNvNtCsamRkV5TgGfN_13ratatui_diary8markdown14render_to_texts_0B5_
FN:69,_RNCNvNtCsamRkV5TgGfN_13ratatui_diary8markdown27convert_fmt_text_to_ratatui0B5_
FN:32,_RNvNtCsamRkV5TgGfN_13ratatui_diary8markdown11create_skin
FN:9,_RNvNtCsamRkV5TgGfN_13ratatui_diary8markdown14render_to_text
FN:61,_RNvNtCsamRkV5TgGfN_13ratatui_diary8markdown27convert_fmt_text_to_ratatui
FN:72,_RNCNCNvNtCs6b5JbnzwaX9_13ratatui_diary8markdown27convert_fmt_text_to_ratatui00B7_
FN:18,_RNCNvNtCs6b5JbnzwaX9_13ratatui_diary8markdown14render_to_text0B5_
FN:22,_RNCNvNtCs6b5JbnzwaX9_13ratatui_diary8markdown14render_to_texts_0B5_
FN:69,_RNCNvNtCs6b5JbnzwaX9_13ratatui_diary8markdown27convert_fmt_text_to_ratatui0B5_
FN:32,_RNvNtCs6b5JbnzwaX9_13ratatui_diary8markdown11create_skin
FN:9,_RNvNtCs6b5JbnzwaX9_13ratatui_diary8markdown14render_to_text
FN:83,_RNvNtCs6b5JbnzwaX9_13ratatui_diary8markdown16to_ratatui_color
FN:61,_RNvNtCs6b5JbnzwaX9_13ratatui_diary8markdown27convert_fmt_text_to_ratatui
FNDA:0,_RNCNCNvNtCsamRkV5TgGfN_13ratatui_diary8markdown27convert_fmt_text_to_ratatui00B7_
FNDA:10,_RNCNvNtCsamRkV5TgGfN_13ratatui_diary8markdown14render_to_text0B5_
FNDA:0,_RNCNvNtCsamRkV5TgGfN_13ratatui_diary8markdown14render_to_texts_0B5_
FNDA:35,_RNCNvNtCsamRkV5TgGfN_13ratatui_diary8markdown27convert_fmt_text_to_ratatui0B5_
FNDA:10,_RNvNtCsamRkV5TgGfN_13ratatui_diary8markdown11create_skin
FNDA:11,_RNvNtCsamRkV5TgGfN_13ratatui_diary8markdown14render_to_text
FNDA:10,_RNvNtCsamRkV5TgGfN_13ratatui_diary8markdown27convert_fmt_text_to_ratatui
FNDA:0,_RNCNCNvNtCs6b5JbnzwaX9_13ratatui_diary8markdown27convert_fmt_text_to_ratatui00B7_
FNDA:0,_RNCNvNtCs6b5JbnzwaX9_13ratatui_diary8markdown14render_to_text0B5_
FNDA:0,_RNCNvNtCs6b5JbnzwaX9_13ratatui_diary8markdown14render_to_texts_0B5_
FNDA:0,_RNCNvNtCs6b5JbnzwaX9_13ratatui_diary8markdown27convert_fmt_text_to_ratatui0B5_
FNDA:0,_RNvNtCs6b5JbnzwaX9_13ratatui_diary8markdown11create_skin
FNDA:0,_RNvNtCs6b5JbnzwaX9_13ratatui_diary8markdown14render_to_text
FNDA:0,_RNvNtCs6b5JbnzwaX9_13ratatui_diary8markdown16to_ratatui_color
FNDA:0,_RNvNtCs6b5JbnzwaX9_13ratatui_diary8markdown27convert_fmt_text_to_ratatui
FNF:8
FNH:5
DA:9,11
DA:10,11
DA:11,1
DA:12,10
DA:15,10
DA:18,10
DA:19,10
DA:22,0
DA:23,0
DA:28,10
DA:29,11
DA:32,10
DA:36,10
DA:39,10
DA:40,10
DA:41,10
DA:42,10
DA:43,10
DA:44,10
DA:47,10
DA:48,10
DA:51,10
DA:54,10
DA:55,10
DA:57,10
DA:58,10
DA:61,10
DA:63,10
DA:67,10
DA:68,10
DA:69,35
DA:71,35
DA:72,35
DA:74,35
DA:75,35
DA:76,10
DA:78,10
DA:79,10
DA:83,0
DA:86,0
DA:87,0
DA:88,0
DA:89,0
DA:90,0
DA:91,0
DA:92,0
DA:93,0
DA:94,0
DA:95,0
DA:96,0
DA:97,0
DA:98,0
DA:99,0
DA:100,0
DA:101,0
DA:102,0
DA:104,0
DA:105,0
DA:106,0
DA:107,0
DA:108,0
DA:109,0
DA:111,0
BRF:0
BRH:0
LF:67
LH:38
end_of_record
SF:/Users/mgch/github/mingyuchoo/rust-study-series/TUI/ratatui-diary/src/model.rs
FN:493,_RNCNvMs0_NtCsamRkV5TgGfN_13ratatui_diary5modelNtB7_11EditorState13move_word_end0B9_
FN:499,_RNCNvMs0_NtCsamRkV5TgGfN_13ratatui_diary5modelNtB7_11EditorState13move_word_ends0_0B9_
FN:505,_RNCNvMs0_NtCsamRkV5TgGfN_13ratatui_diary5modelNtB7_11EditorState13move_word_ends1_0B9_
FN:510,_RNCNvMs0_NtCsamRkV5TgGfN_13ratatui_diary5modelNtB7_11EditorState13move_word_ends2_0B9_
FN:494,_RNCNvMs0_NtCsamRkV5TgGfN_13ratatui_diary5modelNtB7_11EditorState13move_word_ends_0B9_
FN:543,_RNCNvMs0_NtCsamRkV5TgGfN_13ratatui_diary5modelNtB7_11EditorState14execute_search0B9_
FN:467,_RNCNvMs0_NtCsamRkV5TgGfN_13ratatui_diary5modelNtB7_11EditorState14move_word_prev0B9_
FN:472,_RNCNvMs0_NtCsamRkV5TgGfN_13ratatui_diary5modelNtB7_11EditorState14move_word_prevs_0B9_
FN:323,_RNCNvMs0_NtCsamRkV5TgGfN_13ratatui_diary5modelNtB7_11EditorState19get_selection_range0B9_
FN:180,_RNCNvMs0_NtCsamRkV5TgGfN_13ratatui_diary5modelNtB7_11EditorState20char_idx_to_byte_idxs_0B9_
FN:612,_RNCNvNtCsamRkV5TgGfN_13ratatui_diary5model13days_in_month0B5_
FN:85,_RNvMNtCsamRkV5TgGfN_13ratatui_diary5modelNtB2_5Model3new
FN:320,_RNvMs0_NtCsamRkV5TgGfN_13ratatui_diary5modelNtB5_11EditorState11get_content
FN:265,_RNvMs0_NtCsamRkV5TgGfN_13ratatui_diary5modelNtB5_11EditorState11insert_char
FN:561,_RNvMs0_NtCsamRkV5TgGfN_13ratatui_diary5modelNtB5_11EditorState11search_next
FN:583,_RNvMs0_NtCsamRkV5TgGfN_13ratatui_diary5modelNtB5_11EditorState11search_prev
FN:305,_RNvMs0_NtCsamRkV5TgGfN_13ratatui_diary5modelNtB5_11EditorState12load_content
FN:479,_RNvMs0_NtCsamRkV5TgGfN_13ratatui_diary5modelNtB5_11EditorState13move_word_end
FN:217,_RNvMs0_NtCsamRkV5TgGfN_13ratatui_diary5modelNtB5_11EditorState13save_snapshot
FN:520,_RNvMs0_NtCsamRkV5TgGfN_13ratatui_diary5modelNtB5_11EditorState14execute_search
FN:421,_RNvMs0_NtCsamRkV5TgGfN_13ratatui_diary5modelNtB5_11EditorState14move_word_next
FN:455,_RNvMs0_NtCsamRkV5TgGfN_13ratatui_diary5modelNtB5_11EditorState14move_word_prev
FN:388,_RNvMs0_NtCsamRkV5TgGfN_13ratatui_diary5modelNtB5_11EditorState16delete_selection
FN:240,_RNvMs0_NtCsamRkV5TgGfN_13ratatui_diary5modelNtB5_11EditorState16restore_snapshot
FN:340,_RNvMs0_NtCsamRkV5TgGfN_13ratatui_diary5modelNtB5_11EditorState17get_selected_text
FN:322,_RNvMs0_NtCsamRkV5TgGfN_13ratatui_diary5modelNtB5_11EditorState19get_selection_range
FN:186,_RNvMs0_NtCsamRkV5TgGfN_13ratatui_diary5modelNtB5_11EditorState20byte_idx_to_char_idx
FN:171,_RNvMs0_NtCsamRkV5TgGfN_13ratatui_diary5modelNtB5_11EditorState20char_idx_to_byte_idx
FN:194,_RNvMs0_NtCsamRkV5TgGfN_13ratatui_diary5modelNtB5_11EditorState3new
FN:258,_RNvMs0_NtCsamRkV5TgGfN_13ratatui_diary5modelNtB5_11EditorState4redo
FN:251,_RNvMs0_NtCsamRkV5TgGfN_13ratatui_diary5modelNtB5_11EditorState4undo
FN:293,_RNvMs0_NtCsamRkV5TgGfN_13ratatui_diary5modelNtB5_11EditorState8new_line
FN:276,_RNvMs0_NtCsamRkV5TgGfN_13ratatui_diary5modelNtB5_11EditorState9backspace
FN:114,_RNvMs_NtCsamRkV5TgGfN_13ratatui_diary5modelNtB4_13CalendarState10next_month
FN:124,_RNvMs_NtCsamRkV5TgGfN_13ratatui_diary5modelNtB4_13CalendarState10prev_month
FN:148,_RNvMs_NtCsamRkV5TgGfN_13ratatui_diary5modelNtB4_13CalendarState14move_cursor_up
FN:150,_RNvMs_NtCsamRkV5TgGfN_13ratatui_diary5modelNtB4_13CalendarState16move_cursor_down
FN:144,_RNvMs_NtCsamRkV5TgGfN_13ratatui_diary5modelNtB4_13CalendarState16move_cursor_left
FN:146,_RNvMs_NtCsamRkV5TgGfN_13ratatui_diary5modelNtB4_13CalendarState17move_cursor_right
FN:152,_RNvMs_NtCsamRkV5TgGfN_13ratatui_diary5modelNtB4_13CalendarState20adjust_selected_date
FN:103,_RNvMs_NtCsamRkV5TgGfN_13ratatui_diary5modelNtB4_13CalendarState3new
FN:134,_RNvMs_NtCsamRkV5TgGfN_13ratatui_diary5modelNtB4_13CalendarState9next_year
FN:139,_RNvMs_NtCsamRkV5TgGfN_13ratatui_diary5modelNtB4_13CalendarState9prev_year
FN:610,_RNvNtCsamRkV5TgGfN_13ratatui_diary5model13days_in_month
FN:493,_RNCNvMs0_NtCs6b5JbnzwaX9_13ratatui_diary5modelNtB7_11EditorState13move_word_end0B9_
FN:499,_RNCNvMs0_NtCs6b5JbnzwaX9_13ratatui_diary5modelNtB7_11EditorState13move_word_ends0_0B9_
FN:505,_RNCNvMs0_NtCs6b5JbnzwaX9_13ratatui_diary5modelNtB7_11EditorState13move_word_ends1_0B9_
FN:510,_RNCNvMs0_NtCs6b5JbnzwaX9_13ratatui_diary5modelNtB7_11EditorState13move_word_ends2_0B9_
FN:494,_RNCNvMs0_NtCs6b5JbnzwaX9_13ratatui_diary5modelNtB7_11EditorState13move_word_ends_0B9_
FN:543,_RNCNvMs0_NtCs6b5JbnzwaX9_13ratatui_diary5modelNtB7_11EditorState14execute_search0B9_
FN:467,_RNCNvMs0_NtCs6b5JbnzwaX9_13ratatui_diary5modelNtB7_11EditorState14move_word_prev0B9_
FN:472,_RNCNvMs0_NtCs6b5JbnzwaX9_13ratatui_diary5modelNtB7_11EditorState14move_word_prevs_0B9_
FN:323,_RNCNvMs0_NtCs6b5JbnzwaX9_13ratatui_diary5modelNtB7_11EditorState19get_selection_range0B9_
FN:180,_RNCNvMs0_NtCs6b5JbnzwaX9_13ratatui_diary5modelNtB7_11EditorState20char_idx_to_byte_idxs_0B9_
FN:612,_RNCNvNtCs6b5JbnzwaX9_13ratatui_diary5model13days_in_month0B5_
FN:85,_RNvMNtCs6b5JbnzwaX9_13ratatui_diary5modelNtB2_5Model3new
FN:320,_RNvMs0_NtCs6b5JbnzwaX9_13ratatui_diary5modelNtB5_11EditorState11get_content
FN:265,_RNvMs0_NtCs6b5JbnzwaX9_13ratatui_diary5modelNtB5_11EditorState11insert_char
FN:561,_RNvMs0_NtCs6b5JbnzwaX9_13ratatui_diary5modelNtB5_11EditorState11search_next
FN:583,_RNvMs0_NtCs6b5JbnzwaX9_13ratatui_diary5modelNtB5_11EditorState11search_prev
FN:305,_RNvMs0_NtCs6b5JbnzwaX9_13ratatui_diary5modelNtB5_11EditorState12load_content
FN:479,_RNvMs0_NtCs6b5JbnzwaX9_13ratatui_diary5modelNtB5_11EditorState13move_word_end
FN:217,_RNvMs0_NtCs6b5JbnzwaX9_13ratatui_diary5modelNtB5_11EditorState13save_snapshot
FN:520,_RNvMs0_NtCs6b5JbnzwaX9_13ratatui_diary5modelNtB5_11EditorState14execute_search
FN:421,_RNvMs0_NtCs6b5JbnzwaX9_13ratatui_diary5modelNtB5_11EditorState14move_word_next
FN:455,_RNvMs0_NtCs6b5JbnzwaX9_13ratatui_diary5modelNtB5_11EditorState14move_word_prev
FN:388,_RNvMs0_NtCs6b5JbnzwaX9_13ratatui_diary5modelNtB5_11EditorState16delete_selection
FN:240,_RNvMs0_NtCs6b5JbnzwaX9_13ratatui_diary5modelNtB5_11EditorState16restore_snapshot
FN:340,_RNvMs0_NtCs6b5JbnzwaX9_13ratatui_diary5modelNtB5_11EditorState17get_selected_text
FN:322,_RNvMs0_NtCs6b5JbnzwaX9_13ratatui_diary5modelNtB5_11EditorState19get_selection_range
FN:186,_RNvMs0_NtCs6b5JbnzwaX9_13ratatui_diary5modelNtB5_11EditorState20byte_idx_to_char_idx
FN:171,_RNvMs0_NtCs6b5JbnzwaX9_13ratatui_diary5modelNtB5_11EditorState20char_idx_to_byte_idx
FN:194,_RNvMs0_NtCs6b5JbnzwaX9_13ratatui_diary5modelNtB5_11EditorState3new
FN:258,_RNvMs0_NtCs6b5JbnzwaX9_13ratatui_diary5modelNtB5_11EditorState4redo
FN:251,_RNvMs0_NtCs6b5JbnzwaX9_13ratatui_diary5modelNtB5_11EditorState4undo
FN:293,_RNvMs0_NtCs6b5JbnzwaX9_13ratatui_diary5modelNtB5_11EditorState8new_line
FN:276,_RNvMs0_NtCs6b5JbnzwaX9_13ratatui_diary5modelNtB5_11EditorState9backspace
FN:114,_RNvMs_NtCs6b5JbnzwaX9_13ratatui_diary5modelNtB4_13CalendarState10next_month
FN:124,_RNvMs_NtCs6b5JbnzwaX9_13ratatui_diary5modelNtB4_13CalendarState10prev_month
FN:148,_RNvMs_NtCs6b5JbnzwaX9_13ratatui_diary5modelNtB4_13CalendarState14move_cursor_up
FN:150,_RNvMs_NtCs6b5JbnzwaX9_13ratatui_diary5modelNtB4_13CalendarState16move_cursor_down
FN:144,_RNvMs_NtCs6b5JbnzwaX9_13ratatui_diary5modelNtB4_13CalendarState16move_cursor_left
FN:146,_RNvMs_NtCs6b5JbnzwaX9_13ratatui_diary5modelNtB4_13CalendarState17move_cursor_right
FN:152,_RNvMs_NtCs6b5JbnzwaX9_13ratatui_diary5modelNtB4_13CalendarState20adjust_selected_date
FN:103,_RNvMs_NtCs6b5JbnzwaX9_13ratatui_diary5modelNtB4_13CalendarState3new
FN:134,_RNvMs_NtCs6b5JbnzwaX9_13ratatui_diary5modelNtB4_13CalendarState9next_year
FN:139,_RNvMs_NtCs6b5JbnzwaX9_13ratatui_diary5modelNtB4_13CalendarState9prev_year
FN:610,_RNvNtCs6b5JbnzwaX9_13ratatui_diary5model13days_in_month
FNDA:2,_RNCNvMs0_NtCsamRkV5TgGfN_13ratatui_diary5modelNtB7_11EditorState13move_word_end0B9_
FNDA:2,_RNCNvMs0_NtCsamRkV5TgGfN_13ratatui_diary5modelNtB7_11EditorState13move_word_ends0_0B9_
FNDA:2,_RNCNvMs0_NtCsamRkV5TgGfN_13ratatui_diary5modelNtB7_11EditorState13move_word_ends1_0B9_
FNDA:12,_RNCNvMs0_NtCsamRkV5TgGfN_13ratatui_diary5modelNtB7_11EditorState13move_word_ends2_0B9_
FNDA:2,_RNCNvMs0_NtCsamRkV5TgGfN_13ratatui_diary5modelNtB7_11EditorState13move_word_ends_0B9_
FNDA:6,_RNCNvMs0_NtCsamRkV5TgGfN_13ratatui_diary5modelNtB7_11EditorState14execute_search0B9_
FNDA:4,_RNCNvMs0_NtCsamRkV5TgGfN_13ratatui_diary5modelNtB7_11EditorState14move_word_prev0B9_
FNDA:9,_RNCNvMs0_NtCsamRkV5TgGfN_13ratatui_diary5modelNtB7_11EditorState14move_word_prevs_0B9_
FNDA:15,_RNCNvMs0_NtCsamRkV5TgGfN_13ratatui_diary5modelNtB7_11EditorState19get_selection_range0B9_
FNDA:13,_RNCNvMs0_NtCsamRkV5TgGfN_13ratatui_diary5modelNtB7_11EditorState20char_idx_to_byte_idxs_0B9_
FNDA:1,_RNCNvNtCsamRkV5TgGfN_13ratatui_diary5model13days_in_month0B5_
FNDA:37,_RNvMNtCsamRkV5TgGfN_13ratatui_diary5modelNtB2_5Model3new
FNDA:2,_RNvMs0_NtCsamRkV5TgGfN_13ratatui_diary5modelNtB5_11EditorState11get_content
FNDA:11,_RNvMs0_NtCsamRkV5TgGfN_13ratatui_diary5modelNtB5_11EditorState11insert_char
FNDA:4,_RNvMs0_NtCsamRkV5TgGfN_13ratatui_diary5modelNtB5_11EditorState11search_next
FNDA:2,_RNvMs0_NtCsamRkV5TgGfN_13ratatui_diary5modelNtB5_11EditorState11search_prev
FNDA:2,_RNvMs0_NtCsamRkV5TgGfN_13ratatui_diary5modelNtB5_11EditorState12load_content
FNDA:2,_RNvMs0_NtCsamRkV5TgGfN_13ratatui_diary5modelNtB5_11EditorState13move_word_end
FNDA:76,_RNvMs0_NtCsamRkV5TgGfN_13ratatui_diary5modelNtB5_11EditorState13save_snapshot
FNDA:6,_RNvMs0_NtCsamRkV5TgGfN_13ratatui_diary5modelNtB5_11EditorState14execute_search
FNDA:3,_RNvMs0_NtCsamRkV5TgGfN_13ratatui_diary5modelNtB5_11EditorState14move_word_next
FNDA:2,_RNvMs0_NtCsamRkV5TgGfN_13ratatui_diary5modelNtB5_11EditorState14move_word_prev
FNDA:4,_RNvMs0_NtCsamRkV5TgGfN_13ratatui_diary5modelNtB5_11EditorState16delete_selection
FNDA:4,_RNvMs0_NtCsamRkV5TgGfN_13ratatui_diary5modelNtB5_11EditorState16restore_snapshot
FNDA:7,_RNvMs0_NtCsamRkV5TgGfN_13ratatui_diary5modelNtB5_11EditorState17get_selected_text
FNDA:15,_RNvMs0_NtCsamRkV5TgGfN_13ratatui_diary5modelNtB5_11EditorState19get_selection_range
FNDA:19,_RNvMs0_NtCsamRkV5TgGfN_13ratatui_diary5modelNtB5_11EditorState20byte_idx_to_char_idx
FNDA:39,_RNvMs0_NtCsamRkV5TgGfN_13ratatui_diary5modelNtB5_11EditorState20char_idx_to_byte_idx
FNDA:66,_RNvMs0_NtCsamRkV5TgGfN_13ratatui_diary5modelNtB5_11EditorState3new
FNDA:2,_RNvMs0_NtCsamRkV5TgGfN_13ratatui_diary5modelNtB5_11EditorState4redo
FNDA:3,_RNvMs0_NtCsamRkV5TgGfN_13ratatui_diary5modelNtB5_11EditorState4undo
FNDA:2,_RNvMs0_NtCsamRkV5TgGfN_13ratatui_diary5modelNtB5_11EditorState8new_line
FNDA:1,_RNvMs0_NtCsamRkV5TgGfN_13ratatui_diary5modelNtB5_11EditorState9backspace
FNDA:3,_RNvMs_NtCsamRkV5TgGfN_13ratatui_diary5modelNtB4_13CalendarState10next_month
FNDA:2,_RNvMs_NtCsamRkV5TgGfN_13ratatui_diary5modelNtB4_13CalendarState10prev_month
FNDA:0,_RNvMs_NtCsamRkV5TgGfN_13ratatui_diary5modelNtB4_13CalendarState14move_cursor_up
FNDA:0,_RNvMs_NtCsamRkV5TgGfN_13ratatui_diary5modelNtB4_13CalendarState16move_cursor_down
FNDA:1,_RNvMs_NtCsamRkV5TgGfN_13ratatui_diary5modelNtB4_13CalendarState16move_cursor_left
FNDA:1,_RNvMs_NtCsamRkV5TgGfN_13ratatui_diary5modelNtB4_13CalendarState17move_cursor_right
FNDA:5,_RNvMs_NtCsamRkV5TgGfN_13ratatui_diary5modelNtB4_13CalendarState20adjust_selected_date
FNDA:41,_RNvMs_NtCsamRkV5TgGfN_13ratatui_diary5modelNtB4_13CalendarState3new
FNDA:0,_RNvMs_NtCsamRkV5TgGfN_13ratatui_diary5modelNtB4_13CalendarState9next_year
FNDA:0,_RNvMs_NtCsamRkV5TgGfN_13ratatui_diary5modelNtB4_13CalendarState9prev_year
FNDA:5,_RNvNtCsamRkV5TgGfN_13ratatui_diary5model13days_in_month
FNDA:0,_RNCNvMs0_NtCs6b5JbnzwaX9_13ratatui_diary5modelNtB7_11EditorState13move_word_end0B9_
FNDA:0,_RNCNvMs0_NtCs6b5JbnzwaX9_13ratatui_diary5modelNtB7_11EditorState13move_word_ends0_0B9_
FNDA:0,_RNCNvMs0_NtCs6b5JbnzwaX9_13ratatui_diary5modelNtB7_11EditorState13move_word_ends1_0B9_
FNDA:0,_RNCNvMs0_NtCs6b5JbnzwaX9_13ratatui_diary5modelNtB7_11EditorState13move_word_ends2_0B9_
FNDA:0,_RNCNvMs0_NtCs6b5JbnzwaX9_13ratatui_diary5modelNtB7_11EditorState13move_word_ends_0B9_
FNDA:0,_RNCNvMs0_NtCs6b5JbnzwaX9_13ratatui_diary5modelNtB7_11EditorState14execute_search0B9_
FNDA:0,_RNCNvMs0_NtCs6b5JbnzwaX9_13ratatui_diary5modelNtB7_11EditorState14move_word_prev0B9_
FNDA:0,_RNCNvMs0_NtCs6b5JbnzwaX9_13ratatui_diary5modelNtB7_11EditorState14move_word_prevs_0B9_
FNDA:0,_RNCNvMs0_NtCs6b5JbnzwaX9_13ratatui_diary5modelNtB7_11EditorState19get_selection_range0B9_
FNDA:0,_RNCNvMs0_NtCs6b5JbnzwaX9_13ratatui_diary5modelNtB7_11EditorState20char_idx_to_byte_idxs_0B9_
FNDA:0,_RNCNvNtCs6b5JbnzwaX9_13ratatui_diary5model13days_in_month0B5_
FNDA:0,_RNvMNtCs6b5JbnzwaX9_13ratatui_diary5modelNtB2_5Model3new
FNDA:0,_RNvMs0_NtCs6b5JbnzwaX9_13ratatui_diary5modelNtB5_11EditorState11get_content
FNDA:0,_RNvMs0_NtCs6b5JbnzwaX9_13ratatui_diary5modelNtB5_11EditorState11insert_char
FNDA:0,_RNvMs0_NtCs6b5JbnzwaX9_13ratatui_diary5modelNtB5_11EditorState11search_next
FNDA:0,_RNvMs0_NtCs6b5JbnzwaX9_13ratatui_diary5modelNtB5_11EditorState11search_prev
FNDA:0,_RNvMs0_NtCs6b5JbnzwaX9_13ratatui_diary5modelNtB5_11EditorState12load_content
FNDA:0,_RNvMs0_NtCs6b5JbnzwaX9_13ratatui_diary5modelNtB5_11EditorState13move_word_end
FNDA:0,_RNvMs0_NtCs6b5JbnzwaX9_13ratatui_diary5modelNtB5_11EditorState13save_snapshot
FNDA:0,_RNvMs0_NtCs6b5JbnzwaX9_13ratatui_diary5modelNtB5_11EditorState14execute_search
FNDA:0,_RNvMs0_NtCs6b5JbnzwaX9_13ratatui_diary5modelNtB5_11EditorState14move_word_next
FNDA:0,_RNvMs0_NtCs6b5JbnzwaX9_13ratatui_diary5modelNtB5_11EditorState14move_word_prev
FNDA:0,_RNvMs0_NtCs6b5JbnzwaX9_13ratatui_diary5modelNtB5_11EditorState16delete_selection
FNDA:0,_RNvMs0_NtCs6b5JbnzwaX9_13ratatui_diary5modelNtB5_11EditorState16restore_snapshot
FNDA:0,_RNvMs0_NtCs6b5JbnzwaX9_13ratatui_diary5modelNtB5_11EditorState17get_selected_text
FNDA:0,_RNvMs0_NtCs6b5JbnzwaX9_13ratatui_diary5modelNtB5_11EditorState19get_selection_range
FNDA:0,_RNvMs0_NtCs6b5JbnzwaX9_13ratatui_diary5modelNtB5_11EditorState20byte_idx_to_char_idx
FNDA:0,_RNvMs0_NtCs6b5JbnzwaX9_13ratatui_diary5modelNtB5_11EditorState20char_idx_to_byte_idx
FNDA:0,_RNvMs0_NtCs6b5JbnzwaX9_13ratatui_diary5modelNtB5_11EditorState3new
FNDA:0,_RNvMs0_NtCs6b5JbnzwaX9_13ratatui_diary5modelNtB5_11EditorState4redo
FNDA:0,_RNvMs0_NtCs6b5JbnzwaX9_13ratatui_diary5modelNtB5_11EditorState4undo
FNDA:0,_RNvMs0_NtCs6b5JbnzwaX9_13ratatui_diary5modelNtB5_11EditorState8new_line
FNDA:0,_RNvMs0_NtCs6b5JbnzwaX9_13ratatui_diary5modelNtB5_11EditorState9backspace
FNDA:0,_RNvMs_NtCs6b5JbnzwaX9_13ratatui_diary5modelNtB4_13CalendarState10next_month
FNDA:0,_RNvMs_NtCs6b5JbnzwaX9_13ratatui_diary5modelNtB4_13CalendarState10prev_month
FNDA:0,_RNvMs_NtCs6b5JbnzwaX9_13ratatui_diary5modelNtB4_13CalendarState14move_cursor_up
FNDA:0,_RNvMs_NtCs6b5JbnzwaX9_13ratatui_diary5modelNtB4_13CalendarState16move_cursor_down
FNDA:0,_RNvMs_NtCs6b5JbnzwaX9_13ratatui_diary5modelNtB4_13CalendarState16move_cursor_left
FNDA:0,_RNvMs_NtCs6b5JbnzwaX9_13ratatui_diary5modelNtB4_13CalendarState17move_cursor_right
FNDA:0,_RNvMs_NtCs6b5JbnzwaX9_13ratatui_diary5modelNtB4_13CalendarState20adjust_selected_date
FNDA:0,_RNvMs_NtCs6b5JbnzwaX9_13ratatui_diary5modelNtB4_13CalendarState3new
FNDA:0,_RNvMs_NtCs6b5JbnzwaX9_13ratatui_diary5modelNtB4_13CalendarState9next_year
FNDA:0,_RNvMs_NtCs6b5JbnzwaX9_13ratatui_diary5modelNtB4_13CalendarState9prev_year
FNDA:0,_RNvNtCs6b5JbnzwaX9_13ratatui_diary5model13days_in_month
FNF:44
FNH:40
DA:85,37
DA:86,37
DA:88,37
DA:89,37
DA:90,37
DA:91,37
DA:92,37
DA:93,37
DA:94,37
DA:95,37
DA:96,37
DA:97,37
DA:98,37
DA:99,37
DA:103,41
DA:104,41
DA:105,41
DA:106,41
DA:107,41
DA:108,41
DA:109,41
DA:110,41
DA:111,41
DA:112,41
DA:114,3
DA:115,3
DA:116,1
DA:117,1
DA:118,2
DA:119,2
DA:120,2
DA:121,3
DA:122,3
DA:124,2
DA:125,2
DA:126,1
DA:127,1
DA:128,1
DA:129,1
DA:130,1
DA:131,2
DA:132,2
DA:134,0
DA:135,0
DA:136,0
DA:137,0
DA:139,0
DA:140,0
DA:141,0
DA:142,0
DA:144,1
DA:146,1
DA:148,0
DA:150,0
DA:152,5
DA:154,5
DA:155,5
DA:156,5
DA:157,5
DA:158,5
DA:159,5
DA:160,5
DA:161,5
DA:171,39
DA:172,39
DA:173,0
DA:174,39
DA:176,39
DA:177,39
DA:178,39
DA:179,39
DA:180,39
DA:181,39
DA:186,19
DA:187,19
DA:188,0
DA:189,19
DA:191,19
DA:192,19
DA:194,66
DA:195,66
DA:196,66
DA:197,66
DA:198,66
DA:199,66
DA:200,66
DA:201,66
DA:202,66
DA:203,66
DA:204,66
DA:205,66
DA:206,66
DA:207,66
DA:208,66
DA:209,66
DA:210,66
DA:213,66
DA:214,66
DA:215,66
DA:217,76
DA:219,76
DA:222,76
DA:223,76
DA:224,76
DA:225,76
DA:226,76
DA:227,76
DA:229,76
DA:230,76
DA:234,76
DA:235,0
DA:236,0
DA:237,76
DA:238,76
DA:240,4
DA:241,4
DA:242,4
DA:243,4
DA:244,4
DA:245,4
DA:246,4
DA:247,4
DA:248,4
DA:249,4
DA:251,3
DA:252,3
DA:253,3
DA:254,3
DA:255,3
DA:256,3
DA:258,2
DA:259,2
DA:260,1
DA:261,1
DA:262,1
DA:263,2
DA:265,11
DA:266,11
DA:267,0
DA:268,11
DA:270,11
DA:271,11
DA:272,11
DA:273,11
DA:274,11
DA:276,1
DA:277,1
DA:278,1
DA:279,1
DA:280,1
DA:281,1
DA:282,1
DA:283,0
DA:284,0
DA:285,0
DA:286,0
DA:287,0
DA:288,0
DA:289,0
DA:290,0
DA:291,1
DA:293,2
DA:294,2
DA:295,2
DA:296,2
DA:297,2
DA:299,2
DA:300,2
DA:301,2
DA:302,2
DA:303,2
DA:305,2
DA:306,2
DA:307,0
DA:309,2
DA:311,2
DA:312,2
DA:313,2
DA:316,2
DA:317,2
DA:318,2
DA:320,2
DA:322,15
DA:323,15
DA:324,15
DA:325,14
DA:327,1
DA:330,15
DA:331,1
DA:333,14
DA:336,15
DA:337,15
DA:338,15
DA:340,7
DA:341,7
DA:344,7
DA:345,0
DA:346,7
DA:348,7
DA:349,5
DA:350,5
DA:351,5
DA:352,5
DA:355,5
DA:356,5
DA:357,5
DA:359,2
DA:362,2
DA:363,2
DA:364,2
DA:365,2
DA:366,2
DA:367,2
DA:370,2
DA:371,2
DA:372,2
DA:373,2
DA:374,2
DA:378,2
DA:379,2
DA:380,2
DA:381,2
DA:382,2
DA:384,2
DA:386,7
DA:388,4
DA:389,4
DA:390,4
DA:391,0
DA:394,4
DA:395,3
DA:396,3
DA:397,3
DA:398,3
DA:399,3
DA:400,3
DA:401,3
DA:402,1
DA:403,1
DA:404,1
DA:405,1
DA:406,1
DA:407,1
DA:408,1
DA:409,1
DA:410,1
DA:411,1
DA:412,1
DA:413,1
DA:414,1
DA:415,1
DA:417,4
DA:418,4
DA:419,4
DA:421,3
DA:422,3
DA:423,0
DA:424,3
DA:426,3
DA:427,3
DA:428,3
DA:431,18
DA:432,18
DA:433,3
DA:434,15
DA:435,15
DA:439,6
DA:440,6
DA:441,3
DA:442,3
DA:443,3
DA:447,3
DA:448,3
DA:449,3
DA:450,0
DA:451,0
DA:452,0
DA:453,3
DA:455,2
DA:456,2
DA:457,0
DA:458,2
DA:460,2
DA:461,2
DA:464,2
DA:467,4
DA:468,2
DA:469,2
DA:472,10
DA:473,8
DA:474,8
DA:476,2
DA:477,2
DA:479,2
DA:480,2
DA:481,0
DA:482,2
DA:484,2
DA:485,2
DA:486,2
DA:487,0
DA:488,2
DA:490,2
DA:493,2
DA:494,2
DA:496,2
DA:498,1
DA:499,2
DA:500,1
DA:501,1
DA:502,1
DA:505,2
DA:506,0
DA:507,0
DA:510,12
DA:511,10
DA:512,10
DA:515,2
DA:517,2
DA:518,2
DA:520,6
DA:521,6
DA:522,0
DA:523,6
DA:526,6
DA:527,11
DA:528,11
DA:529,27
DA:530,16
DA:531,16
DA:532,16
DA:533,16
DA:534,16
DA:535,16
DA:539,6
DA:540,6
DA:541,6
DA:542,6
DA:543,6
DA:544,6
DA:546,6
DA:547,6
DA:548,6
DA:551,6
DA:552,6
DA:553,6
DA:554,6
DA:555,6
DA:556,6
DA:557,6
DA:558,0
DA:559,6
DA:561,4
DA:562,4
DA:563,0
DA:564,4
DA:567,4
DA:569,4
DA:570,4
DA:571,4
DA:574,4
DA:575,4
DA:576,4
DA:577,4
DA:578,4
DA:579,4
DA:580,4
DA:581,4
DA:583,2
DA:584,2
DA:585,0
DA:586,2
DA:589,2
DA:590,1
DA:591,1
DA:592,1
DA:593,1
DA:595,2
DA:596,2
DA:597,2
DA:600,2
DA:601,2
DA:602,2
DA:603,2
DA:604,2
DA:605,2
DA:606,2
DA:607,2
DA:610,5
DA:611,5
DA:612,5
DA:613,5
DA:614,5
DA:615,5
DA:616,5
BRF:0
BRH:0
LF:406
LH:367
end_of_record
SF:/Users/mgch/github/mingyuchoo/rust-study-series/TUI/ratatui-diary/src/storage.rs
FN:53,_RNvMNtCsamRkV5TgGfN_13ratatui_diary7storageNtB2_7Storage12scan_entries
FN:34,_RNvMNtCsamRkV5TgGfN_13ratatui_diary7storageNtB2_7Storage17new_with_none_dir
FN:22,_RNvMNtCsamRkV5TgGfN_13ratatui_diary7storageNtB2_7Storage3new
FN:43,_RNvMNtCsamRkV5TgGfN_13ratatui_diary7storageNtB2_7Storage4load
FN:38,_RNvMNtCsamRkV5TgGfN_13ratatui_diary7storageNtB2_7Storage4save
FN:48,_RNvMNtCsamRkV5TgGfN_13ratatui_diary7storageNtB2_7Storage6delete
FN:66,_RNvMNtCsamRkV5TgGfN_13ratatui_diary7storageNtB2_7Storage8get_path
FN:26,_RNvMNtCsamRkV5TgGfN_13ratatui_diary7storageNtB2_7Storage8new_impl
FN:14,_RNvMNtCsamRkV5TgGfN_13ratatui_diary7storageNtB2_7Storage8with_dir
FN:69,_RNvNtCsamRkV5TgGfN_13ratatui_diary7storage14parse_filename
FN:28,_RNCNvMNtCsamRkV5TgGfN_13ratatui_diary7storageNtB4_7Storage8new_impl0B6_
FN:28,_RNCNvMNtCs6b5JbnzwaX9_13ratatui_diary7storageNtB4_7Storage8new_impl0B6_
FN:53,_RNvMNtCs6b5JbnzwaX9_13ratatui_diary7storageNtB2_7Storage12scan_entries
FN:34,_RNvMNtCs6b5JbnzwaX9_13ratatui_diary7storageNtB2_7Storage17new_with_none_dir
FN:22,_RNvMNtCs6b5JbnzwaX9_13ratatui_diary7storageNtB2_7Storage3new
FN:43,_RNvMNtCs6b5JbnzwaX9_13ratatui_diary7storageNtB2_7Storage4load
FN:38,_RNvMNtCs6b5JbnzwaX9_13ratatui_diary7storageNtB2_7Storage4save
FN:48,_RNvMNtCs6b5JbnzwaX9_13ratatui_diary7storageNtB2_7Storage6delete
FN:66,_RNvMNtCs6b5JbnzwaX9_13ratatui_diary7storageNtB2_7Storage8get_path
FN:26,_RNvMNtCs6b5JbnzwaX9_13ratatui_diary7storageNtB2_7Storage8new_impl
FN:14,_RNvMNtCs6b5JbnzwaX9_13ratatui_diary7storageNtB2_7Storage8with_dir
FN:69,_RNvNtCs6b5JbnzwaX9_13ratatui_diary7storage14parse_filename
FNDA:3,_RNvMNtCsamRkV5TgGfN_13ratatui_diary7storageNtB2_7Storage12scan_entries
FNDA:1,_RNvMNtCsamRkV5TgGfN_13ratatui_diary7storageNtB2_7Storage17new_with_none_dir
FNDA:4,_RNvMNtCsamRkV5TgGfN_13ratatui_diary7storageNtB2_7Storage3new
FNDA:6,_RNvMNtCsamRkV5TgGfN_13ratatui_diary7storageNtB2_7Storage4load
FNDA:6,_RNvMNtCsamRkV5TgGfN_13ratatui_diary7storageNtB2_7Storage4save
FNDA:1,_RNvMNtCsamRkV5TgGfN_13ratatui_diary7storageNtB2_7Storage6delete
FNDA:13,_RNvMNtCsamRkV5TgGfN_13ratatui_diary7storageNtB2_7Storage8get_path
FNDA:5,_RNvMNtCsamRkV5TgGfN_13ratatui_diary7storageNtB2_7Storage8new_impl
FNDA:44,_RNvMNtCsamRkV5TgGfN_13ratatui_diary7storageNtB2_7Storage8with_dir
FNDA:4,_RNvNtCsamRkV5TgGfN_13ratatui_diary7storage14parse_filename
FNDA:1,_RNCNvMNtCsamRkV5TgGfN_13ratatui_diary7storageNtB4_7Storage8new_impl0B6_
FNDA:0,_RNCNvMNtCs6b5JbnzwaX9_13ratatui_diary7storageNtB4_7Storage8new_impl0B6_
FNDA:0,_RNvMNtCs6b5JbnzwaX9_13ratatui_diary7storageNtB2_7Storage12scan_entries
FNDA:0,_RNvMNtCs6b5JbnzwaX9_13ratatui_diary7storageNtB2_7Storage17new_with_none_dir
FNDA:0,_RNvMNtCs6b5JbnzwaX9_13ratatui_diary7storageNtB2_7Storage3new
FNDA:0,_RNvMNtCs6b5JbnzwaX9_13ratatui_diary7storageNtB2_7Storage4load
FNDA:0,_RNvMNtCs6b5JbnzwaX9_13ratatui_diary7storageNtB2_7Storage4save
FNDA:0,_RNvMNtCs6b5JbnzwaX9_13ratatui_diary7storageNtB2_7Storage6delete
FNDA:0,_RNvMNtCs6b5JbnzwaX9_13ratatui_diary7storageNtB2_7Storage8get_path
FNDA:0,_RNvMNtCs6b5JbnzwaX9_13ratatui_diary7storageNtB2_7Storage8new_impl
FNDA:0,_RNvMNtCs6b5JbnzwaX9_13ratatui_diary7storageNtB2_7Storage8with_dir
FNDA:0,_RNvNtCs6b5JbnzwaX9_13ratatui_diary7storage14parse_filename
FNF:11
FNH:11
DA:14,44
DA:15,44
DA:16,44
DA:17,44
DA:18,44
DA:19,44
DA:20,44
DA:22,4
DA:23,4
DA:24,4
DA:26,5
DA:27,5
DA:28,5
DA:29,4
DA:30,4
DA:31,5
DA:34,1
DA:35,1
DA:36,1
DA:38,6
DA:39,6
DA:40,6
DA:41,6
DA:43,6
DA:44,6
DA:45,6
DA:46,6
DA:48,1
DA:49,1
DA:50,1
DA:51,1
DA:53,3
DA:54,3
DA:56,4
DA:57,4
DA:58,4
DA:59,4
DA:60,4
DA:63,3
DA:64,3
DA:66,13
DA:69,4
DA:70,4
DA:71,4
DA:72,4
BRF:0
BRH:0
LF:46
LH:46
end_of_record
SF:/Users/mgch/github/mingyuchoo/rust-study-series/TUI/ratatui-diary/src/update.rs
FN:46,_RNvNtCsamRkV5TgGfN_13ratatui_diary6update15paste_clipboard
FN:20,_RNvNtCsamRkV5TgGfN_13ratatui_diary6update24update_selection_on_move
FN:28,_RNvNtCsamRkV5TgGfN_13ratatui_diary6update25ensure_selection_for_edit
FN:89,_RNvNtCsamRkV5TgGfN_13ratatui_diary6update6update
FN:46,_RNvNtCs6b5JbnzwaX9_13ratatui_diary6update15paste_clipboard
FN:20,_RNvNtCs6b5JbnzwaX9_13ratatui_diary6update24update_selection_on_move
FN:28,_RNvNtCs6b5JbnzwaX9_13ratatui_diary6update25ensure_selection_for_edit
FN:89,_RNvNtCs6b5JbnzwaX9_13ratatui_diary6update6update
FNDA:0,_RNvNtCsamRkV5TgGfN_13ratatui_diary6update15paste_clipboard
FNDA:5,_RNvNtCsamRkV5TgGfN_13ratatui_diary6update24update_selection_on_move
FNDA:2,_RNvNtCsamRkV5TgGfN_13ratatui_diary6update25ensure_selection_for_edit
FNDA:37,_RNvNtCsamRkV5TgGfN_13ratatui_diary6update6update
FNDA:0,_RNvNtCs6b5JbnzwaX9_13ratatui_diary6update15paste_clipboard
FNDA:0,_RNvNtCs6b5JbnzwaX9_13ratatui_diary6update24update_selection_on_move
FNDA:0,_RNvNtCs6b5JbnzwaX9_13ratatui_diary6update25ensure_selection_for_edit
FNDA:0,_RNvNtCs6b5JbnzwaX9_13ratatui_diary6update6update
FNF:4
FNH:3
DA:20,5
DA:21,5
DA:22,0
DA:23,0
DA:24,5
DA:25,5
DA:28,2
DA:29,2
DA:31,0
DA:32,0
DA:34,0
DA:36,0
DA:37,0
DA:38,0
DA:39,0
DA:40,0
DA:41,0
DA:42,2
DA:43,2
DA:46,0
DA:47,0
DA:48,0
DA:49,0
DA:52,0
DA:54,0
DA:57,0
DA:58,0
DA:59,0
DA:61,0
DA:62,0
DA:64,0
DA:67,0
DA:68,0
DA:69,0
DA:71,0
DA:72,0
DA:76,0
DA:77,0
DA:78,0
DA:79,0
DA:80,0
DA:82,0
DA:83,0
DA:86,0
DA:87,0
DA:89,37
DA:90,37
DA:91,0
DA:92,0
DA:93,0
DA:95,1
DA:96,1
DA:97,1
DA:98,1
DA:102,1
DA:103,1
DA:104,1
DA:106,1
DA:107,1
DA:108,1
DA:110,0
DA:111,0
DA:112,0
DA:114,0
DA:115,0
DA:116,0
DA:118,1
DA:119,1
DA:120,1
DA:121,1
DA:122,1
DA:123,0
DA:127,1
DA:128,1
DA:129,1
DA:131,1
DA:132,1
DA:133,1
DA:135,0
DA:136,0
DA:137,0
DA:138,0
DA:141,1
DA:142,1
DA:143,1
DA:144,1
DA:146,0
DA:147,0
DA:148,0
DA:149,0
DA:151,0
DA:152,0
DA:153,0
DA:154,0
DA:156,0
DA:157,0
DA:158,0
DA:159,0
DA:163,0
DA:164,0
DA:165,0
DA:166,0
DA:168,1
DA:169,1
DA:170,1
DA:172,0
DA:174,1
DA:175,1
DA:176,1
DA:177,1
DA:178,0
DA:180,0
DA:181,0
DA:182,0
DA:183,0
DA:184,0
DA:185,0
DA:186,0
DA:189,1
DA:190,1
DA:191,1
DA:192,1
DA:193,1
DA:194,1
DA:195,1
DA:196,1
DA:197,1
DA:198,1
DA:201,1
DA:202,1
DA:203,1
DA:204,1
DA:206,0
DA:207,0
DA:208,0
DA:209,0
DA:211,0
DA:212,0
DA:213,0
DA:214,0
DA:218,1
DA:219,1
DA:220,1
DA:222,1
DA:223,1
DA:224,1
DA:225,1
DA:226,1
DA:227,1
DA:230,0
DA:231,0
DA:232,0
DA:233,0
DA:234,0
DA:235,0
DA:236,0
DA:237,0
DA:240,0
DA:241,0
DA:242,0
DA:243,0
DA:244,0
DA:247,1
DA:248,1
DA:249,1
DA:251,0
DA:253,1
DA:254,1
DA:255,1
DA:256,0
DA:259,1
DA:260,1
DA:261,1
DA:264,2
DA:265,2
DA:266,2
DA:267,2
DA:268,1
DA:269,1
DA:270,1
DA:272,1
DA:273,1
DA:275,0
DA:277,1
DA:278,1
DA:279,1
DA:282,0
DA:283,0
DA:284,0
DA:285,0
DA:286,0
DA:287,0
DA:288,0
DA:289,0
DA:290,0
DA:293,2
DA:294,0
DA:297,0
DA:298,0
DA:299,0
DA:300,0
DA:301,0
DA:302,0
DA:303,0
DA:304,0
DA:306,2
DA:307,2
DA:308,2
DA:309,2
DA:311,0
DA:312,0
DA:313,0
DA:315,0
DA:316,0
DA:317,0
DA:321,4
DA:322,4
DA:323,4
DA:324,2
DA:325,2
DA:326,2
DA:327,2
DA:328,2
DA:329,2
DA:330,2
DA:331,2
DA:332,2
DA:333,0
DA:335,4
DA:336,4
DA:337,4
DA:338,4
DA:340,0
DA:342,4
DA:343,4
DA:344,4
DA:345,4
DA:346,4
DA:347,4
DA:348,0
DA:352,1
DA:354,1
DA:357,1
DA:358,1
DA:359,1
DA:360,1
DA:361,1
DA:362,0
DA:365,0
DA:367,0
DA:370,0
DA:371,0
DA:372,0
DA:373,0
DA:374,0
DA:375,0
DA:376,0
DA:379,1
DA:381,1
DA:383,1
DA:384,1
DA:385,1
DA:386,1
DA:387,0
DA:390,0
DA:391,0
DA:392,0
DA:393,0
DA:395,0
DA:396,0
DA:397,0
DA:398,0
DA:402,1
DA:403,0
DA:404,1
DA:406,1
DA:407,0
DA:408,1
DA:412,1
DA:413,1
DA:414,1
DA:415,1
DA:416,0
DA:417,0
DA:418,0
DA:419,0
DA:422,0
DA:423,0
DA:424,0
DA:427,1
DA:428,1
DA:429,1
DA:430,1
DA:433,0
DA:434,0
DA:435,0
DA:437,0
DA:438,0
DA:439,0
DA:443,1
DA:444,1
DA:445,1
DA:447,1
DA:448,1
DA:449,1
DA:451,1
DA:452,1
DA:453,1
DA:454,1
DA:455,0
DA:458,1
DA:459,1
DA:460,1
DA:461,1
DA:462,1
DA:463,1
DA:464,1
DA:467,0
DA:468,0
DA:469,0
DA:471,0
DA:472,0
DA:473,0
DA:474,0
DA:475,0
DA:476,0
DA:479,0
DA:480,0
DA:481,0
DA:484,1
DA:485,1
DA:486,1
DA:487,1
DA:488,1
DA:489,0
DA:491,0
DA:492,0
DA:493,0
DA:494,0
DA:496,1
DA:497,1
DA:498,1
DA:499,0
DA:500,0
DA:501,0
DA:502,0
DA:503,0
DA:504,0
DA:505,0
DA:506,0
DA:507,0
DA:508,0
DA:509,0
DA:512,35
DA:513,37
BRF:0
BRH:0
LF:355
LH:165
end_of_record
SF:/Users/mgch/github/mingyuchoo/rust-study-series/TUI/ratatui-diary/src/view.rs
FN:121,_RNCNvNtCsamRkV5TgGfN_13ratatui_diary4view20render_calendar_grid0B5_
FN:110,_RNCNvNtCsamRkV5TgGfN_13ratatui_diary4view20render_calendar_grids_0B5_
FN:295,_RNCNvNtCsamRkV5TgGfN_13ratatui_diary4view21render_editor_content0B5_
FN:154,_RNvNtCsamRkV5TgGfN_13ratatui_diary4view10format_day
FN:267,_RNvNtCsamRkV5TgGfN_13ratatui_diary4view13centered_rect
FN:175,_RNvNtCsamRkV5TgGfN_13ratatui_diary4view13render_editor
FN:328,_RNvNtCsamRkV5TgGfN_13ratatui_diary4view14get_char_style
FN:357,_RNvNtCsamRkV5TgGfN_13ratatui_diary4view15is_in_selection
FN:382,_RNvNtCsamRkV5TgGfN_13ratatui_diary4view15is_search_match
FN:39,_RNvNtCsamRkV5TgGfN_13ratatui_diary4view15render_calendar
FN:393,_RNvNtCsamRkV5TgGfN_13ratatui_diary4view17build_status_text
FN:247,_RNvNtCsamRkV5TgGfN_13ratatui_diary4view18render_error_popup
FN:82,_RNvNtCsamRkV5TgGfN_13ratatui_diary4view19render_preview_pane
FN:98,_RNvNtCsamRkV5TgGfN_13ratatui_diary4view20render_calendar_grid
FN:288,_RNvNtCsamRkV5TgGfN_13ratatui_diary4view21render_editor_content
FN:230,_RNvNtCsamRkV5TgGfN_13ratatui_diary4view23render_markdown_preview
FN:27,_RNvNtCsamRkV5TgGfN_13ratatui_diary4view4view
FN:121,_RNCNvNtCs6b5JbnzwaX9_13ratatui_diary4view20render_calendar_grid0B5_
FN:110,_RNCNvNtCs6b5JbnzwaX9_13ratatui_diary4view20render_calendar_grids_0B5_
FN:295,_RNCNvNtCs6b5JbnzwaX9_13ratatui_diary4view21render_editor_content0B5_
FN:154,_RNvNtCs6b5JbnzwaX9_13ratatui_diary4view10format_day
FN:267,_RNvNtCs6b5JbnzwaX9_13ratatui_diary4view13centered_rect
FN:175,_RNvNtCs6b5JbnzwaX9_13ratatui_diary4view13render_editor
FN:328,_RNvNtCs6b5JbnzwaX9_13ratatui_diary4view14get_char_style
FN:357,_RNvNtCs6b5JbnzwaX9_13ratatui_diary4view15is_in_selection
FN:382,_RNvNtCs6b5JbnzwaX9_13ratatui_diary4view15is_search_match
FN:39,_RNvNtCs6b5JbnzwaX9_13ratatui_diary4view15render_calendar
FN:393,_RNvNtCs6b5JbnzwaX9_13ratatui_diary4view17build_status_text
FN:247,_RNvNtCs6b5JbnzwaX9_13ratatui_diary4view18render_error_popup
FN:82,_RNvNtCs6b5JbnzwaX9_13ratatui_diary4view19render_preview_pane
FN:98,_RNvNtCs6b5JbnzwaX9_13ratatui_diary4view20render_calendar_grid
FN:288,_RNvNtCs6b5JbnzwaX9_13ratatui_diary4view21render_editor_content
FN:230,_RNvNtCs6b5JbnzwaX9_13ratatui_diary4view23render_markdown_preview
FN:27,_RNvNtCs6b5JbnzwaX9_13ratatui_diary4view4view
FNDA:0,_RNCNvNtCsamRkV5TgGfN_13ratatui_diary4view20render_calendar_grid0B5_
FNDA:0,_RNCNvNtCsamRkV5TgGfN_13ratatui_diary4view20render_calendar_grids_0B5_
FNDA:0,_RNCNvNtCsamRkV5TgGfN_13ratatui_diary4view21render_editor_content0B5_
FNDA:0,_RNvNtCsamRkV5TgGfN_13ratatui_diary4view10format_day
FNDA:0,_RNvNtCsamRkV5TgGfN_13ratatui_diary4view13centered_rect
FNDA:0,_RNvNtCsamRkV5TgGfN_13ratatui_diary4view13render_editor
FNDA:0,_RNvNtCsamRkV5TgGfN_13ratatui_diary4view14get_char_style
FNDA:0,_RNvNtCsamRkV5TgGfN_13ratatui_diary4view15is_in_selection
FNDA:0,_RNvNtCsamRkV5TgGfN_13ratatui_diary4view15is_search_match
FNDA:0,_RNvNtCsamRkV5TgGfN_13ratatui_diary4view15render_calendar
FNDA:0,_RNvNtCsamRkV5TgGfN_13ratatui_diary4view17build_status_text
FNDA:0,_RNvNtCsamRkV5TgGfN_13ratatui_diary4view18render_error_popup
FNDA:0,_RNvNtCsamRkV5TgGfN_13ratatui_diary4view19render_preview_pane
FNDA:0,_RNvNtCsamRkV5TgGfN_13ratatui_diary4view20render_calendar_grid
FNDA:0,_RNvNtCsamRkV5TgGfN_13ratatui_diary4view21render_editor_content
FNDA:0,_RNvNtCsamRkV5TgGfN_13ratatui_diary4view23render_markdown_preview
FNDA:0,_RNvNtCsamRkV5TgGfN_13ratatui_diary4view4view
FNDA:0,_RNCNvNtCs6b5JbnzwaX9_13ratatui_diary4view20render_calendar_grid0B5_
FNDA:0,_RNCNvNtCs6b5JbnzwaX9_13ratatui_diary4view20render_calendar_grids_0B5_
FNDA:0,_RNCNvNtCs6b5JbnzwaX9_13ratatui_diary4view21render_editor_content0B5_
FNDA:0,_RNvNtCs6b5JbnzwaX9_13ratatui_diary4view10format_day
FNDA:0,_RNvNtCs6b5JbnzwaX9_13ratatui_diary4view13centered_rect
FNDA:0,_RNvNtCs6b5JbnzwaX9_13ratatui_diary4view13render_editor
FNDA:0,_RNvNtCs6b5JbnzwaX9_13ratatui_diary4view14get_char_style
FNDA:0,_RNvNtCs6b5JbnzwaX9_13ratatui_diary4view15is_in_selection
FNDA:0,_RNvNtCs6b5JbnzwaX9_13ratatui_diary4view15is_search_match
FNDA:0,_RNvNtCs6b5JbnzwaX9_13ratatui_diary4view15render_calendar
FNDA:0,_RNvNtCs6b5JbnzwaX9_13ratatui_diary4view17build_status_text
FNDA:0,_RNvNtCs6b5JbnzwaX9_13ratatui_diary4view18render_error_popup
FNDA:0,_RNvNtCs6b5JbnzwaX9_13ratatui_diary4view19render_preview_pane
FNDA:0,_RNvNtCs6b5JbnzwaX9_13ratatui_diary4view20render_calendar_grid
FNDA:0,_RNvNtCs6b5JbnzwaX9_13ratatui_diary4view21render_editor_content
FNDA:0,_RNvNtCs6b5JbnzwaX9_13ratatui_diary4view23render_markdown_preview
FNDA:0,_RNvNtCs6b5JbnzwaX9_13ratatui_diary4view4view
FNF:17
FNH:0
DA:27,0
DA:28,0
DA:29,0
DA:30,0
DA:34,0
DA:35,0
DA:36,0
DA:37,0
DA:39,0
DA:41,0
DA:42,0
DA:43,0
DA:44,0
DA:45,0
DA:46,0
DA:47,0
DA:50,0
DA:51,0
DA:52,0
DA:53,0
DA:54,0
DA:55,0
DA:56,0
DA:57,0
DA:60,0
DA:61,0
DA:62,0
DA:63,0
DA:66,0
DA:69,0
DA:70,0
DA:73,0
DA:74,0
DA:75,0
DA:76,0
DA:79,0
DA:80,0
DA:82,0
DA:83,0
DA:84,0
DA:85,0
DA:86,0
DA:87,0
DA:88,0
DA:90,0
DA:91,0
DA:92,0
DA:93,0
DA:95,0
DA:96,0
DA:98,0
DA:102,0
DA:103,0
DA:106,0
DA:107,0
DA:108,0
DA:109,0
DA:110,0
DA:111,0
DA:115,0
DA:116,0
DA:119,0
DA:120,0
DA:121,0
DA:122,0
DA:123,0
DA:124,0
DA:126,0
DA:127,0
DA:130,0
DA:131,0
DA:132,0
DA:133,0
DA:134,0
DA:135,0
DA:138,0
DA:139,0
DA:140,0
DA:141,0
DA:142,0
DA:143,0
DA:144,0
DA:145,0
DA:147,0
DA:150,0
DA:151,0
DA:152,0
DA:154,0
DA:155,0
DA:156,0
DA:157,0
DA:159,0
DA:161,0
DA:162,0
DA:163,0
DA:164,0
DA:165,0
DA:166,0
DA:167,0
DA:168,0
DA:169,0
DA:171,0
DA:172,0
DA:173,0
DA:175,0
DA:177,0
DA:178,0
DA:179,0
DA:180,0
DA:181,0
DA:182,0
DA:183,0
DA:186,0
DA:187,0
DA:188,0
DA:189,0
DA:190,0
DA:191,0
DA:192,0
DA:193,0
DA:196,0
DA:197,0
DA:200,0
DA:201,0
DA:202,0
DA:203,0
DA:204,0
DA:207,0
DA:208,0
DA:209,0
DA:210,0
DA:211,0
DA:212,0
DA:213,0
DA:214,0
DA:215,0
DA:216,0
DA:217,0
DA:221,0
DA:222,0
DA:223,0
DA:226,0
DA:227,0
DA:228,0
DA:230,0
DA:231,0
DA:233,0
DA:234,0
DA:235,0
DA:236,0
DA:237,0
DA:238,0
DA:240,0
DA:241,0
DA:242,0
DA:244,0
DA:245,0
DA:247,0
DA:248,0
DA:250,0
DA:251,0
DA:252,0
DA:253,0
DA:254,0
DA:255,0
DA:256,0
DA:258,0
DA:259,0
DA:260,0
DA:261,0
DA:263,0
DA:264,0
DA:265,0
DA:267,0
DA:268,0
DA:269,0
DA:270,0
DA:271,0
DA:272,0
DA:273,0
DA:274,0
DA:275,0
DA:277,0
DA:278,0
DA:279,0
DA:280,0
DA:281,0
DA:282,0
DA:283,0
DA:284,0
DA:285,0
DA:288,0
DA:289,0
DA:291,0
DA:292,0
DA:293,0
DA:294,0
DA:295,0
DA:296,0
DA:297,0
DA:299,0
DA:300,0
DA:301,0
DA:302,0
DA:303,0
DA:304,0
DA:305,0
DA:306,0
DA:307,0
DA:308,0
DA:309,0
DA:310,0
DA:311,0
DA:312,0
DA:313,0
DA:314,0
DA:315,0
DA:318,0
DA:319,0
DA:320,0
DA:322,0
DA:323,0
DA:324,0
DA:325,0
DA:328,0
DA:329,0
DA:330,0
DA:331,0
DA:332,0
DA:333,0
DA:334,0
DA:335,0
DA:336,0
DA:339,0
DA:342,0
DA:345,0
DA:346,0
DA:347,0
DA:348,0
DA:349,0
DA:350,0
DA:352,0
DA:354,0
DA:357,0
DA:358,0
DA:359,0
DA:360,0
DA:361,0
DA:363,0
DA:365,0
DA:366,0
DA:368,0
DA:369,0
DA:371,0
DA:374,0
DA:377,0
DA:379,0
DA:382,0
DA:383,0
DA:384,0
DA:385,0
DA:386,0
DA:387,0
DA:389,0
DA:390,0
DA:393,0
DA:394,0
DA:395,0
DA:396,0
DA:400,0
DA:401,0
DA:402,0
DA:404,0
DA:406,0
DA:410,0
DA:411,0
DA:413,0
DA:416,0
DA:417,0
BRF:0
BRH:0
LF:282
LH:0
end_of_record